
strob.elf:     file format elf32-avr

Sections:
Idx Name          Size      VMA       LMA       File off  Algn
  0 .text         0000081e  00000000  00000000  00000094  2**1
                  CONTENTS, ALLOC, LOAD, READONLY, CODE
  1 .data         0000002c  00800060  0000081e  000008b2  2**0
                  CONTENTS, ALLOC, LOAD, DATA
  2 .bss          0000004b  0080008c  0080008c  000008de  2**0
                  ALLOC
  3 .stab         000006b4  00000000  00000000  000008e0  2**2
                  CONTENTS, READONLY, DEBUGGING
  4 .stabstr      00000085  00000000  00000000  00000f94  2**0
                  CONTENTS, READONLY, DEBUGGING
  5 .debug_aranges 00000020  00000000  00000000  00001019  2**0
                  CONTENTS, READONLY, DEBUGGING
  6 .debug_pubnames 000001f8  00000000  00000000  00001039  2**0
                  CONTENTS, READONLY, DEBUGGING
  7 .debug_info   00000ddd  00000000  00000000  00001231  2**0
                  CONTENTS, READONLY, DEBUGGING
  8 .debug_abbrev 00000406  00000000  00000000  0000200e  2**0
                  CONTENTS, READONLY, DEBUGGING
  9 .debug_line   000005b7  00000000  00000000  00002414  2**0
                  CONTENTS, READONLY, DEBUGGING
 10 .debug_frame  000000e0  00000000  00000000  000029cc  2**2
                  CONTENTS, READONLY, DEBUGGING
 11 .debug_str    00000698  00000000  00000000  00002aac  2**0
                  CONTENTS, READONLY, DEBUGGING
 12 .debug_loc    000002f9  00000000  00000000  00003144  2**0
                  CONTENTS, READONLY, DEBUGGING
 13 .debug_pubtypes 00000073  00000000  00000000  0000343d  2**0
                  CONTENTS, READONLY, DEBUGGING
 14 .debug_ranges 00000090  00000000  00000000  000034b0  2**0
                  CONTENTS, READONLY, DEBUGGING

Disassembly of section .text:

00000000 <__vectors>:
   0:	13 c0       	rjmp	.+38     	; 0x28 <__ctors_end>
   2:	35 c0       	rjmp	.+106    	; 0x6e <__bad_interrupt>
   4:	34 c0       	rjmp	.+104    	; 0x6e <__bad_interrupt>
   6:	33 c0       	rjmp	.+102    	; 0x6e <__bad_interrupt>
   8:	32 c0       	rjmp	.+100    	; 0x6e <__bad_interrupt>
   a:	b1 c1       	rjmp	.+866    	; 0x36e <__vector_5>
   c:	30 c0       	rjmp	.+96     	; 0x6e <__bad_interrupt>
   e:	2f c0       	rjmp	.+94     	; 0x6e <__bad_interrupt>
  10:	2e c0       	rjmp	.+92     	; 0x6e <__bad_interrupt>
  12:	2d c0       	rjmp	.+90     	; 0x6e <__bad_interrupt>
  14:	2c c0       	rjmp	.+88     	; 0x6e <__bad_interrupt>
  16:	2b c0       	rjmp	.+86     	; 0x6e <__bad_interrupt>
  18:	2a c0       	rjmp	.+84     	; 0x6e <__bad_interrupt>
  1a:	29 c0       	rjmp	.+82     	; 0x6e <__bad_interrupt>
  1c:	28 c0       	rjmp	.+80     	; 0x6e <__bad_interrupt>
  1e:	27 c0       	rjmp	.+78     	; 0x6e <__bad_interrupt>
  20:	26 c0       	rjmp	.+76     	; 0x6e <__bad_interrupt>
  22:	25 c0       	rjmp	.+74     	; 0x6e <__bad_interrupt>
  24:	24 c0       	rjmp	.+72     	; 0x6e <__bad_interrupt>

00000026 <__ctors_start>:
  26:	d1 03       	fmuls	r21, r17

00000028 <__ctors_end>:
  28:	11 24       	eor	r1, r1
  2a:	1f be       	out	0x3f, r1	; 63
  2c:	cf ed       	ldi	r28, 0xDF	; 223
  2e:	cd bf       	out	0x3d, r28	; 61

00000030 <__do_copy_data>:
  30:	10 e0       	ldi	r17, 0x00	; 0
  32:	a0 e6       	ldi	r26, 0x60	; 96
  34:	b0 e0       	ldi	r27, 0x00	; 0
  36:	ee e1       	ldi	r30, 0x1E	; 30
  38:	f8 e0       	ldi	r31, 0x08	; 8
  3a:	02 c0       	rjmp	.+4      	; 0x40 <__SREG__+0x1>
  3c:	05 90       	lpm	r0, Z+
  3e:	0d 92       	st	X+, r0
  40:	ac 38       	cpi	r26, 0x8C	; 140
  42:	b1 07       	cpc	r27, r17
  44:	d9 f7       	brne	.-10     	; 0x3c <__CCP__+0x8>

00000046 <__do_clear_bss>:
  46:	10 e0       	ldi	r17, 0x00	; 0
  48:	ac e8       	ldi	r26, 0x8C	; 140
  4a:	b0 e0       	ldi	r27, 0x00	; 0
  4c:	01 c0       	rjmp	.+2      	; 0x50 <.do_clear_bss_start>

0000004e <.do_clear_bss_loop>:
  4e:	1d 92       	st	X+, r1

00000050 <.do_clear_bss_start>:
  50:	a7 3d       	cpi	r26, 0xD7	; 215
  52:	b1 07       	cpc	r27, r17
  54:	e1 f7       	brne	.-8      	; 0x4e <.do_clear_bss_loop>

00000056 <__do_global_ctors>:
  56:	10 e0       	ldi	r17, 0x00	; 0
  58:	c8 e2       	ldi	r28, 0x28	; 40
  5a:	d0 e0       	ldi	r29, 0x00	; 0
  5c:	03 c0       	rjmp	.+6      	; 0x64 <__do_global_ctors+0xe>
  5e:	22 97       	sbiw	r28, 0x02	; 2
  60:	fe 01       	movw	r30, r28
  62:	d7 d3       	rcall	.+1966   	; 0x812 <__tablejump__>
  64:	c6 32       	cpi	r28, 0x26	; 38
  66:	d1 07       	cpc	r29, r17
  68:	d1 f7       	brne	.-12     	; 0x5e <__do_global_ctors+0x8>
  6a:	9b d1       	rcall	.+822    	; 0x3a2 <main>
  6c:	d6 c3       	rjmp	.+1964   	; 0x81a <_exit>

0000006e <__bad_interrupt>:
  6e:	c8 cf       	rjmp	.-112    	; 0x0 <__vectors>

00000070 <_ZN7AvrExit9tugleExitEcc>:
#define G1END 7

	public:
	
	void tugleExit(char exit_num, char state){
			if(exit_num <= G1END){ 
  70:	68 30       	cpi	r22, 0x08	; 8
  72:	c0 f4       	brcc	.+48     	; 0xa4 <_ZN7AvrExit9tugleExitEcc+0x34>
				if(state){
  74:	44 23       	and	r20, r20
  76:	59 f0       	breq	.+22     	; 0x8e <_ZN7AvrExit9tugleExitEcc+0x1e>
					UPBIT(G1EXITPORT, exit_num);
  78:	28 b3       	in	r18, 0x18	; 24
  7a:	81 e0       	ldi	r24, 0x01	; 1
  7c:	90 e0       	ldi	r25, 0x00	; 0
  7e:	02 c0       	rjmp	.+4      	; 0x84 <_ZN7AvrExit9tugleExitEcc+0x14>
  80:	88 0f       	add	r24, r24
  82:	99 1f       	adc	r25, r25
  84:	6a 95       	dec	r22
  86:	e2 f7       	brpl	.-8      	; 0x80 <_ZN7AvrExit9tugleExitEcc+0x10>
  88:	28 2b       	or	r18, r24
  8a:	28 bb       	out	0x18, r18	; 24
  8c:	08 95       	ret
				}else{
					DOWNBIT(G1EXITPORT, exit_num);
  8e:	28 b3       	in	r18, 0x18	; 24
  90:	81 e0       	ldi	r24, 0x01	; 1
  92:	90 e0       	ldi	r25, 0x00	; 0
  94:	02 c0       	rjmp	.+4      	; 0x9a <_ZN7AvrExit9tugleExitEcc+0x2a>
  96:	88 0f       	add	r24, r24
  98:	99 1f       	adc	r25, r25
  9a:	6a 95       	dec	r22
  9c:	e2 f7       	brpl	.-8      	; 0x96 <_ZN7AvrExit9tugleExitEcc+0x26>
  9e:	80 95       	com	r24
  a0:	82 23       	and	r24, r18
  a2:	88 bb       	out	0x18, r24	; 24
  a4:	08 95       	ret

000000a6 <_ZN15TuggleAlgorithm6setAlgEP7Tuglingc>:

	TuggleAlgorithm(Tugling* tug, char tuglen){
		setAlg(tug,tuglen);
	}	

	char setAlg(Tugling* tug, char tuglen){
  a6:	cf 93       	push	r28
  a8:	df 93       	push	r29
  aa:	fc 01       	movw	r30, r24
		if (tuglen > MAX_ALG_LEN) 
  ac:	45 30       	cpi	r20, 0x05	; 5
  ae:	f0 f4       	brcc	.+60     	; 0xec <__stack+0xd>
  b0:	26 2f       	mov	r18, r22
  b2:	37 2f       	mov	r19, r23

	TuggleAlgorithm(Tugling* tug, char tuglen){
		setAlg(tug,tuglen);
	}	

	char setAlg(Tugling* tug, char tuglen){
  b4:	84 2f       	mov	r24, r20
  b6:	90 e0       	ldi	r25, 0x00	; 0
  b8:	63 e0       	ldi	r22, 0x03	; 3
  ba:	70 e0       	ldi	r23, 0x00	; 0
  bc:	96 d3       	rcall	.+1836   	; 0x7ea <__mulhi3>
  be:	60 e0       	ldi	r22, 0x00	; 0
  c0:	70 e0       	ldi	r23, 0x00	; 0
  c2:	0d c0       	rjmp	.+26     	; 0xde <_ZN15TuggleAlgorithm6setAlgEP7Tuglingc+0x38>
  c4:	ef 01       	movw	r28, r30
  c6:	c6 0f       	add	r28, r22
  c8:	d7 1f       	adc	r29, r23
		if (tuglen > MAX_ALG_LEN) 
			return ERR;
			
		for(int i = 0; i < tuglen; i++)
			alg[i] = tug[i];
  ca:	d9 01       	movw	r26, r18
  cc:	53 e0       	ldi	r21, 0x03	; 3
  ce:	0d 90       	ld	r0, X+
  d0:	09 92       	st	Y+, r0
  d2:	51 50       	subi	r21, 0x01	; 1
  d4:	e1 f7       	brne	.-8      	; 0xce <_ZN15TuggleAlgorithm6setAlgEP7Tuglingc+0x28>
  d6:	2d 5f       	subi	r18, 0xFD	; 253
  d8:	3f 4f       	sbci	r19, 0xFF	; 255
  da:	6d 5f       	subi	r22, 0xFD	; 253
  dc:	7f 4f       	sbci	r23, 0xFF	; 255

	char setAlg(Tugling* tug, char tuglen){
		if (tuglen > MAX_ALG_LEN) 
			return ERR;
			
		for(int i = 0; i < tuglen; i++)
  de:	68 17       	cp	r22, r24
  e0:	79 07       	cpc	r23, r25
  e2:	81 f7       	brne	.-32     	; 0xc4 <_ZN15TuggleAlgorithm6setAlgEP7Tuglingc+0x1e>
			alg[i] = tug[i];
			
		alglen = tuglen;
  e4:	44 87       	std	Z+12, r20	; 0x0c
		cur = alglen;
  e6:	45 87       	std	Z+13, r20	; 0x0d

		return 0;
  e8:	80 e0       	ldi	r24, 0x00	; 0
  ea:	01 c0       	rjmp	.+2      	; 0xee <__stack+0xf>
		setAlg(tug,tuglen);
	}	

	char setAlg(Tugling* tug, char tuglen){
		if (tuglen > MAX_ALG_LEN) 
			return ERR;
  ec:	81 e0       	ldi	r24, 0x01	; 1
			
		alglen = tuglen;
		cur = alglen;

		return 0;
	}
  ee:	df 91       	pop	r29
  f0:	cf 91       	pop	r28
  f2:	08 95       	ret

000000f4 <_ZN15TuggleAlgorithmC1EP7Tuglingc>:
		alglen = 0;
		cur = 0;
	};

	TuggleAlgorithm(Tugling* tug, char tuglen){
		setAlg(tug,tuglen);
  f4:	d8 df       	rcall	.-80     	; 0xa6 <_ZN15TuggleAlgorithm6setAlgEP7Tuglingc>
	}	
  f6:	08 95       	ret

000000f8 <_ZN15TuggleAlgorithm7getNextEv>:
	
	void reset(){ 
		cur = alglen;
	}
	
	Tugling getNext(){
  f8:	df 93       	push	r29
  fa:	cf 93       	push	r28
  fc:	cd b7       	in	r28, 0x3d	; 61
  fe:	de b7       	in	r29, 0x3e	; 62
 100:	c3 50       	subi	r28, 0x03	; 3
 102:	cd bf       	out	0x3d, r28	; 61
 104:	fc 01       	movw	r30, r24
		if (cur++ >= alglen) 
 106:	85 85       	ldd	r24, Z+13	; 0x0d
 108:	94 85       	ldd	r25, Z+12	; 0x0c
 10a:	28 2f       	mov	r18, r24
 10c:	2f 5f       	subi	r18, 0xFF	; 255
 10e:	25 87       	std	Z+13, r18	; 0x0d
 110:	89 17       	cp	r24, r25
 112:	08 f0       	brcs	.+2      	; 0x116 <_ZN15TuggleAlgorithm7getNextEv+0x1e>
			cur = 0;
 114:	15 86       	std	Z+13, r1	; 0x0d
			
		return alg[cur];
 116:	85 85       	ldd	r24, Z+13	; 0x0d
 118:	90 e0       	ldi	r25, 0x00	; 0
 11a:	63 e0       	ldi	r22, 0x03	; 3
 11c:	70 e0       	ldi	r23, 0x00	; 0
 11e:	65 d3       	rcall	.+1738   	; 0x7ea <__mulhi3>
 120:	de 01       	movw	r26, r28
 122:	11 96       	adiw	r26, 0x01	; 1
 124:	e8 0f       	add	r30, r24
 126:	f9 1f       	adc	r31, r25
 128:	83 e0       	ldi	r24, 0x03	; 3
 12a:	01 90       	ld	r0, Z+
 12c:	0d 92       	st	X+, r0
 12e:	81 50       	subi	r24, 0x01	; 1
 130:	e1 f7       	brne	.-8      	; 0x12a <_ZN15TuggleAlgorithm7getNextEv+0x32>
 132:	69 81       	ldd	r22, Y+1	; 0x01
 134:	7a 81       	ldd	r23, Y+2	; 0x02
	}
 136:	8b 81       	ldd	r24, Y+3	; 0x03
 138:	90 e0       	ldi	r25, 0x00	; 0
 13a:	cd 5f       	subi	r28, 0xFD	; 253
 13c:	cd bf       	out	0x3d, r28	; 61
 13e:	cf 91       	pop	r28
 140:	df 91       	pop	r29
 142:	08 95       	ret

00000144 <_ZN4Exit10isLastTickEv>:
	
	char getNumber(){
		return number;
	}
	
	char isLastTick(){
 144:	cf 93       	push	r28
 146:	df 93       	push	r29
 148:	ec 01       	movw	r28, r24
		if(curtug.ms10_period ==  Tugling::ALWAYS || curtug.ms10_period--) 
 14a:	88 89       	ldd	r24, Y+16	; 0x10
 14c:	99 89       	ldd	r25, Y+17	; 0x11
 14e:	2f ef       	ldi	r18, 0xFF	; 255
 150:	8f 3f       	cpi	r24, 0xFF	; 255
 152:	92 07       	cpc	r25, r18
 154:	39 f0       	breq	.+14     	; 0x164 <_ZN4Exit10isLastTickEv+0x20>
 156:	9c 01       	movw	r18, r24
 158:	21 50       	subi	r18, 0x01	; 1
 15a:	30 40       	sbci	r19, 0x00	; 0
 15c:	39 8b       	std	Y+17, r19	; 0x11
 15e:	28 8b       	std	Y+16, r18	; 0x10
 160:	00 97       	sbiw	r24, 0x00	; 0
 162:	21 f0       	breq	.+8      	; 0x16c <_ZN4Exit10isLastTickEv+0x28>
			return FALSE;
 164:	80 e0       	ldi	r24, 0x00	; 0
			
		curtug = alg.getNext();
		return TRUE;
	}
 166:	df 91       	pop	r29
 168:	cf 91       	pop	r28
 16a:	08 95       	ret
	
	char isLastTick(){
		if(curtug.ms10_period ==  Tugling::ALWAYS || curtug.ms10_period--) 
			return FALSE;
			
		curtug = alg.getNext();
 16c:	ce 01       	movw	r24, r28
 16e:	01 96       	adiw	r24, 0x01	; 1
 170:	c3 df       	rcall	.-122    	; 0xf8 <_ZN15TuggleAlgorithm7getNextEv>
 172:	6f 87       	std	Y+15, r22	; 0x0f
 174:	78 8b       	std	Y+16, r23	; 0x10
 176:	89 8b       	std	Y+17, r24	; 0x11
		return TRUE;
 178:	8f ef       	ldi	r24, 0xFF	; 255
 17a:	f5 cf       	rjmp	.-22     	; 0x166 <_ZN4Exit10isLastTickEv+0x22>

0000017c <_ZN8ExitDispC1EP8ProcExit>:

	ExitDisp(){
		len = 0;
	}

	ExitDisp(ProcExit * pexit){
 17c:	fc 01       	movw	r30, r24
 17e:	20 e2       	ldi	r18, 0x20	; 32
 180:	30 e0       	ldi	r19, 0x00	; 0
	const static int MAX_ALG_LEN = 4;
	const static char OK = 0;
	const static char ERR = 1;
	
	TuggleAlgorithm(){
		alglen = 0;
 182:	15 86       	std	Z+13, r1	; 0x0d
		cur = 0;
 184:	16 86       	std	Z+14, r1	; 0x0e
 186:	21 50       	subi	r18, 0x01	; 1
 188:	30 40       	sbci	r19, 0x00	; 0
 18a:	72 96       	adiw	r30, 0x12	; 18

	ExitDisp(){
		len = 0;
	}

	ExitDisp(ProcExit * pexit){
 18c:	21 15       	cp	r18, r1
 18e:	31 05       	cpc	r19, r1
 190:	c1 f7       	brne	.-16     	; 0x182 <_ZN8ExitDispC1EP8ProcExit+0x6>
		proc_exit = pexit;
 192:	fc 01       	movw	r30, r24
 194:	ef 5b       	subi	r30, 0xBF	; 191
 196:	fd 4f       	sbci	r31, 0xFD	; 253
 198:	71 83       	std	Z+1, r23	; 0x01
 19a:	60 83       	st	Z, r22
		len = 0;
 19c:	80 5c       	subi	r24, 0xC0	; 192
 19e:	9d 4f       	sbci	r25, 0xFD	; 253
 1a0:	fc 01       	movw	r30, r24
 1a2:	10 82       	st	Z, r1
	}
 1a4:	08 95       	ret

000001a6 <_ZN8ExitDisp15firstCheckExitsEv>:
			}	
		}
		return changes;
	}

	void firstCheckExits(){
 1a6:	af 92       	push	r10
 1a8:	bf 92       	push	r11
 1aa:	cf 92       	push	r12
 1ac:	df 92       	push	r13
 1ae:	ef 92       	push	r14
 1b0:	ff 92       	push	r15
 1b2:	1f 93       	push	r17
 1b4:	cf 93       	push	r28
 1b6:	df 93       	push	r29
 1b8:	ec 01       	movw	r28, r24
		for(unsigned char i = 0; i < this->len; i++){
 1ba:	10 e0       	ldi	r17, 0x00	; 0
 1bc:	90 e4       	ldi	r25, 0x40	; 64
 1be:	c9 2e       	mov	r12, r25
 1c0:	92 e0       	ldi	r25, 0x02	; 2
 1c2:	d9 2e       	mov	r13, r25
 1c4:	cc 0e       	add	r12, r28
 1c6:	dd 1e       	adc	r13, r29
			proc_exit->tugleExit(exits[i].getNumber(), exits[i].getState());
 1c8:	81 e4       	ldi	r24, 0x41	; 65
 1ca:	a8 2e       	mov	r10, r24
 1cc:	82 e0       	ldi	r24, 0x02	; 2
 1ce:	b8 2e       	mov	r11, r24
 1d0:	ac 0e       	add	r10, r28
 1d2:	bd 1e       	adc	r11, r29
		}
		return changes;
	}

	void firstCheckExits(){
		for(unsigned char i = 0; i < this->len; i++){
 1d4:	21 c0       	rjmp	.+66     	; 0x218 <_ZN8ExitDisp15firstCheckExitsEv+0x72>
			proc_exit->tugleExit(exits[i].getNumber(), exits[i].getState());
 1d6:	f5 01       	movw	r30, r10
 1d8:	a0 81       	ld	r26, Z
 1da:	b1 81       	ldd	r27, Z+1	; 0x01
 1dc:	ed 91       	ld	r30, X+
 1de:	fc 91       	ld	r31, X
 1e0:	11 97       	sbiw	r26, 0x01	; 1
				}
			}
			disp.checkExits();	
		}
	}
}
 1e2:	81 2f       	mov	r24, r17
 1e4:	90 e0       	ldi	r25, 0x00	; 0
 1e6:	62 e1       	ldi	r22, 0x12	; 18
 1e8:	70 e0       	ldi	r23, 0x00	; 0
 1ea:	ff d2       	rcall	.+1534   	; 0x7ea <__mulhi3>
 1ec:	7e 01       	movw	r14, r28
 1ee:	e8 0e       	add	r14, r24
 1f0:	f9 1e       	adc	r15, r25
 1f2:	81 2f       	mov	r24, r17
 1f4:	90 e0       	ldi	r25, 0x00	; 0
 1f6:	62 e1       	ldi	r22, 0x12	; 18
 1f8:	70 e0       	ldi	r23, 0x00	; 0
 1fa:	f7 d2       	rcall	.+1518   	; 0x7ea <__mulhi3>
 1fc:	9e 01       	movw	r18, r28
 1fe:	28 0f       	add	r18, r24
 200:	39 1f       	adc	r19, r25
 202:	01 90       	ld	r0, Z+
 204:	f0 81       	ld	r31, Z
 206:	e0 2d       	mov	r30, r0
 208:	cd 01       	movw	r24, r26
 20a:	d7 01       	movw	r26, r14
 20c:	6c 91       	ld	r22, X
 20e:	d9 01       	movw	r26, r18
 210:	1f 96       	adiw	r26, 0x0f	; 15
 212:	4c 91       	ld	r20, X
 214:	09 95       	icall
		}
		return changes;
	}

	void firstCheckExits(){
		for(unsigned char i = 0; i < this->len; i++){
 216:	1f 5f       	subi	r17, 0xFF	; 255
 218:	f6 01       	movw	r30, r12
 21a:	80 81       	ld	r24, Z
 21c:	18 17       	cp	r17, r24
 21e:	d8 f2       	brcs	.-74     	; 0x1d6 <_ZN8ExitDisp15firstCheckExitsEv+0x30>
			proc_exit->tugleExit(exits[i].getNumber(), exits[i].getState());
		}
	}
 220:	df 91       	pop	r29
 222:	cf 91       	pop	r28
 224:	1f 91       	pop	r17
 226:	ff 90       	pop	r15
 228:	ef 90       	pop	r14
 22a:	df 90       	pop	r13
 22c:	cf 90       	pop	r12
 22e:	bf 90       	pop	r11
 230:	af 90       	pop	r10
 232:	08 95       	ret

00000234 <_ZN8ExitDisp10checkExitsEv>:
	
	void checkExits(){
 234:	af 92       	push	r10
 236:	bf 92       	push	r11
 238:	cf 92       	push	r12
 23a:	df 92       	push	r13
 23c:	ef 92       	push	r14
 23e:	ff 92       	push	r15
 240:	1f 93       	push	r17
 242:	cf 93       	push	r28
 244:	df 93       	push	r29
 246:	ec 01       	movw	r28, r24
		for(unsigned char i = 0; i < this->len; i++){
 248:	10 e0       	ldi	r17, 0x00	; 0
 24a:	30 e4       	ldi	r19, 0x40	; 64
 24c:	c3 2e       	mov	r12, r19
 24e:	32 e0       	ldi	r19, 0x02	; 2
 250:	d3 2e       	mov	r13, r19
 252:	c8 0e       	add	r12, r24
 254:	d9 1e       	adc	r13, r25
			if (exits[i].isLastTick()){
				proc_exit->tugleExit(exits[i].getNumber(), exits[i].getState());
 256:	21 e4       	ldi	r18, 0x41	; 65
 258:	a2 2e       	mov	r10, r18
 25a:	22 e0       	ldi	r18, 0x02	; 2
 25c:	b2 2e       	mov	r11, r18
 25e:	a8 0e       	add	r10, r24
 260:	b9 1e       	adc	r11, r25
			proc_exit->tugleExit(exits[i].getNumber(), exits[i].getState());
		}
	}
	
	void checkExits(){
		for(unsigned char i = 0; i < this->len; i++){
 262:	2b c0       	rjmp	.+86     	; 0x2ba <_ZN8ExitDisp10checkExitsEv+0x86>
			if (exits[i].isLastTick()){
 264:	81 2f       	mov	r24, r17
 266:	90 e0       	ldi	r25, 0x00	; 0
 268:	62 e1       	ldi	r22, 0x12	; 18
 26a:	70 e0       	ldi	r23, 0x00	; 0
 26c:	be d2       	rcall	.+1404   	; 0x7ea <__mulhi3>
 26e:	8c 0f       	add	r24, r28
 270:	9d 1f       	adc	r25, r29
 272:	68 df       	rcall	.-304    	; 0x144 <_ZN4Exit10isLastTickEv>
 274:	88 23       	and	r24, r24
 276:	01 f1       	breq	.+64     	; 0x2b8 <_ZN8ExitDisp10checkExitsEv+0x84>
				proc_exit->tugleExit(exits[i].getNumber(), exits[i].getState());
 278:	f5 01       	movw	r30, r10
 27a:	a0 81       	ld	r26, Z
 27c:	b1 81       	ldd	r27, Z+1	; 0x01
 27e:	ed 91       	ld	r30, X+
 280:	fc 91       	ld	r31, X
 282:	11 97       	sbiw	r26, 0x01	; 1
 284:	81 2f       	mov	r24, r17
 286:	90 e0       	ldi	r25, 0x00	; 0
 288:	62 e1       	ldi	r22, 0x12	; 18
 28a:	70 e0       	ldi	r23, 0x00	; 0
 28c:	ae d2       	rcall	.+1372   	; 0x7ea <__mulhi3>
 28e:	7e 01       	movw	r14, r28
 290:	e8 0e       	add	r14, r24
 292:	f9 1e       	adc	r15, r25
 294:	81 2f       	mov	r24, r17
 296:	90 e0       	ldi	r25, 0x00	; 0
 298:	62 e1       	ldi	r22, 0x12	; 18
 29a:	70 e0       	ldi	r23, 0x00	; 0
 29c:	a6 d2       	rcall	.+1356   	; 0x7ea <__mulhi3>
 29e:	9e 01       	movw	r18, r28
 2a0:	28 0f       	add	r18, r24
 2a2:	39 1f       	adc	r19, r25
 2a4:	01 90       	ld	r0, Z+
 2a6:	f0 81       	ld	r31, Z
 2a8:	e0 2d       	mov	r30, r0
 2aa:	cd 01       	movw	r24, r26
 2ac:	d7 01       	movw	r26, r14
 2ae:	6c 91       	ld	r22, X
 2b0:	d9 01       	movw	r26, r18
 2b2:	1f 96       	adiw	r26, 0x0f	; 15
 2b4:	4c 91       	ld	r20, X
 2b6:	09 95       	icall
			proc_exit->tugleExit(exits[i].getNumber(), exits[i].getState());
		}
	}
	
	void checkExits(){
		for(unsigned char i = 0; i < this->len; i++){
 2b8:	1f 5f       	subi	r17, 0xFF	; 255
 2ba:	f6 01       	movw	r30, r12
 2bc:	80 81       	ld	r24, Z
 2be:	18 17       	cp	r17, r24
 2c0:	88 f2       	brcs	.-94     	; 0x264 <_ZN8ExitDisp10checkExitsEv+0x30>
			if (exits[i].isLastTick()){
				proc_exit->tugleExit(exits[i].getNumber(), exits[i].getState());
			}
		}
	}
 2c2:	df 91       	pop	r29
 2c4:	cf 91       	pop	r28
 2c6:	1f 91       	pop	r17
 2c8:	ff 90       	pop	r15
 2ca:	ef 90       	pop	r14
 2cc:	df 90       	pop	r13
 2ce:	cf 90       	pop	r12
 2d0:	bf 90       	pop	r11
 2d2:	af 90       	pop	r10
 2d4:	08 95       	ret

000002d6 <_Z16checkUserCommandv>:
	static char blink_count = 0;
	static char blink_was_released = 1;
	static char blibk_wait_count = 0;
	static char blibk_wait_start = 0;
	
	if(blibk_wait_start && (blibk_wait_count++ > STROB_ON_BLINK_WAIT_PERIOD)){
 2d6:	80 91 8d 00 	lds	r24, 0x008D
 2da:	88 23       	and	r24, r24
 2dc:	61 f0       	breq	.+24     	; 0x2f6 <_Z16checkUserCommandv+0x20>
 2de:	80 91 8e 00 	lds	r24, 0x008E
 2e2:	98 2f       	mov	r25, r24
 2e4:	9f 5f       	subi	r25, 0xFF	; 255
 2e6:	90 93 8e 00 	sts	0x008E, r25
 2ea:	89 3c       	cpi	r24, 0xC9	; 201
 2ec:	20 f0       	brcs	.+8      	; 0x2f6 <_Z16checkUserCommandv+0x20>
		blink_count = 0;
 2ee:	10 92 8f 00 	sts	0x008F, r1
		blibk_wait_start = 0;
 2f2:	10 92 8d 00 	sts	0x008D, r1
	}
	
	if ((USER_PORT_PIN & (1 << USER_PIN_NUM)) && blink_was_released){
 2f6:	c8 9b       	sbis	0x19, 0	; 25
 2f8:	2a c0       	rjmp	.+84     	; 0x34e <_Z16checkUserCommandv+0x78>
 2fa:	80 91 8b 00 	lds	r24, 0x008B
 2fe:	88 23       	and	r24, r24
 300:	31 f1       	breq	.+76     	; 0x34e <_Z16checkUserCommandv+0x78>
	
		// если уже режим строба, то просто переключим
		if(is_strob)
 302:	80 91 90 00 	lds	r24, 0x0090
 306:	88 23       	and	r24, r24
 308:	01 f5       	brne	.+64     	; 0x34a <_Z16checkUserCommandv+0x74>
			return NEXTSTROB;
			
		blink_count++;
 30a:	80 91 8f 00 	lds	r24, 0x008F
 30e:	8f 5f       	subi	r24, 0xFF	; 255
 310:	80 93 8f 00 	sts	0x008F, r24

		// соблюдены все условия, значит переключение строба
		if( blink_count == STROB_ON_BLINK_COUNT && blibk_wait_count <= STROB_ON_BLINK_WAIT_PERIOD){
 314:	83 30       	cpi	r24, 0x03	; 3
 316:	81 f4       	brne	.+32     	; 0x338 <_Z16checkUserCommandv+0x62>
 318:	80 91 8e 00 	lds	r24, 0x008E
 31c:	89 3c       	cpi	r24, 0xC9	; 201
 31e:	90 f4       	brcc	.+36     	; 0x344 <_Z16checkUserCommandv+0x6e>
			blink_count = 0;
 320:	10 92 8f 00 	sts	0x008F, r1
			blibk_wait_count = 0;
 324:	10 92 8e 00 	sts	0x008E, r1
			blink_was_released = 0;
 328:	10 92 8b 00 	sts	0x008B, r1
			blibk_wait_start = 0;
 32c:	10 92 8d 00 	sts	0x008D, r1
			is_strob = 1;
 330:	81 e0       	ldi	r24, 0x01	; 1
 332:	80 93 90 00 	sts	0x0090, r24
			return NEXTSTROB;
 336:	08 95       	ret
		}
		
		if (blink_count == 1){
 338:	81 30       	cpi	r24, 0x01	; 1
 33a:	21 f4       	brne	.+8      	; 0x344 <_Z16checkUserCommandv+0x6e>
			blibk_wait_start = 1;
 33c:	80 93 8d 00 	sts	0x008D, r24
			blibk_wait_count = 0;
 340:	10 92 8e 00 	sts	0x008E, r1
		}
		
	
		blink_was_released = 0;
 344:	10 92 8b 00 	sts	0x008B, r1
 348:	05 c0       	rjmp	.+10     	; 0x354 <_Z16checkUserCommandv+0x7e>
	
	if ((USER_PORT_PIN & (1 << USER_PIN_NUM)) && blink_was_released){
	
		// если уже режим строба, то просто переключим
		if(is_strob)
			return NEXTSTROB;
 34a:	81 e0       	ldi	r24, 0x01	; 1
	}else{
		blink_was_released = 1;
	}
	
	return NO;
}
 34c:	08 95       	ret
		}
		
	
		blink_was_released = 0;
	}else{
		blink_was_released = 1;
 34e:	81 e0       	ldi	r24, 0x01	; 1
 350:	80 93 8b 00 	sts	0x008B, r24
	}
	
	return NO;
 354:	80 e0       	ldi	r24, 0x00	; 0
 356:	08 95       	ret

00000358 <_Z11SetupTIMER1v>:
	checkflag = YES_CHECK;
}

void SetupTIMER1 (void)
{
	TCCR1B = (1<<CS12);
 358:	84 e0       	ldi	r24, 0x04	; 4
 35a:	8e bd       	out	0x2e, r24	; 46
	TCNT1 = 65536-50;        
 35c:	8e ec       	ldi	r24, 0xCE	; 206
 35e:	9f ef       	ldi	r25, 0xFF	; 255
 360:	9d bd       	out	0x2d, r25	; 45
 362:	8c bd       	out	0x2c, r24	; 44
	TIMSK |= (1<<TOIE1); 
 364:	89 b7       	in	r24, 0x39	; 57
 366:	80 68       	ori	r24, 0x80	; 128
 368:	89 bf       	out	0x39, r24	; 57
	sei();
 36a:	78 94       	sei
}
 36c:	08 95       	ret

0000036e <__vector_5>:


ISR (TIMER1_OVF_vect)
{
 36e:	1f 92       	push	r1
 370:	0f 92       	push	r0
 372:	0f b6       	in	r0, 0x3f	; 63
 374:	0f 92       	push	r0
 376:	11 24       	eor	r1, r1
 378:	8f 93       	push	r24
 37a:	9f 93       	push	r25
	
	return NO;
}

inline void interruptTimerFunc(){
	checkflag = YES_CHECK;
 37c:	81 e0       	ldi	r24, 0x01	; 1
 37e:	80 93 8c 00 	sts	0x008C, r24

ISR (TIMER1_OVF_vect)
{
	interruptTimerFunc();
	// run timer
	TCNT1 = 65536 - 100; //  31220;
 382:	8c e9       	ldi	r24, 0x9C	; 156
 384:	9f ef       	ldi	r25, 0xFF	; 255
 386:	9d bd       	out	0x2d, r25	; 45
 388:	8c bd       	out	0x2c, r24	; 44
    TCCR1B = (1<<CS12);
 38a:	84 e0       	ldi	r24, 0x04	; 4
 38c:	8e bd       	out	0x2e, r24	; 46
    TIMSK |= (1<<TOIE1);
 38e:	89 b7       	in	r24, 0x39	; 57
 390:	80 68       	ori	r24, 0x80	; 128
 392:	89 bf       	out	0x39, r24	; 57
}
 394:	9f 91       	pop	r25
 396:	8f 91       	pop	r24
 398:	0f 90       	pop	r0
 39a:	0f be       	out	0x3f, r0	; 63
 39c:	0f 90       	pop	r0
 39e:	1f 90       	pop	r1
 3a0:	18 95       	reti

000003a2 <main>:
							
int main(){
 3a2:	2f 92       	push	r2
 3a4:	3f 92       	push	r3
 3a6:	4f 92       	push	r4
 3a8:	5f 92       	push	r5
 3aa:	6f 92       	push	r6
 3ac:	7f 92       	push	r7
 3ae:	8f 92       	push	r8
 3b0:	9f 92       	push	r9
 3b2:	af 92       	push	r10
 3b4:	bf 92       	push	r11
 3b6:	cf 92       	push	r12
 3b8:	df 92       	push	r13
 3ba:	ef 92       	push	r14
 3bc:	ff 92       	push	r15
 3be:	0f 93       	push	r16
 3c0:	1f 93       	push	r17
 3c2:	df 93       	push	r29
 3c4:	cf 93       	push	r28
 3c6:	cd b7       	in	r28, 0x3d	; 61
 3c8:	de b7       	in	r29, 0x3e	; 62
 3ca:	cd 59       	subi	r28, 0x9D	; 157
 3cc:	cd bf       	out	0x3d, r28	; 61
 3ce:	de 01       	movw	r26, r28
 3d0:	13 96       	adiw	r26, 0x03	; 3
 3d2:	e1 e9       	ldi	r30, 0x91	; 145
 3d4:	f0 e0       	ldi	r31, 0x00	; 0
 3d6:	8e e0       	ldi	r24, 0x0E	; 14
 3d8:	01 90       	ld	r0, Z+
 3da:	0d 92       	st	X+, r0
 3dc:	81 50       	subi	r24, 0x01	; 1
 3de:	e1 f7       	brne	.-8      	; 0x3d8 <main+0x36>
	const static int MAX_ALG_LEN = 4;
	const static char OK = 0;
	const static char ERR = 1;
	
	TuggleAlgorithm(){
		alglen = 0;
 3e0:	1e 8e       	std	Y+30, r1	; 0x1e
		cur = 0;
 3e2:	1f 8e       	std	Y+31, r1	; 0x1f
	public:
	
	Exit (){};
	
	Exit (char num, TuggleAlgorithm talg){
		number = num;
 3e4:	82 e0       	ldi	r24, 0x02	; 2
 3e6:	89 8b       	std	Y+17, r24	; 0x11
		alg = talg;
 3e8:	de 01       	movw	r26, r28
 3ea:	52 96       	adiw	r26, 0x12	; 18
 3ec:	fe 01       	movw	r30, r28
 3ee:	33 96       	adiw	r30, 0x03	; 3
 3f0:	8e e0       	ldi	r24, 0x0E	; 14
 3f2:	01 90       	ld	r0, Z+
 3f4:	0d 92       	st	X+, r0
 3f6:	81 50       	subi	r24, 0x01	; 1
 3f8:	e1 f7       	brne	.-8      	; 0x3f2 <main+0x50>
		curtug = alg.getNext();
 3fa:	ce 01       	movw	r24, r28
 3fc:	42 96       	adiw	r24, 0x12	; 18
 3fe:	7c de       	rcall	.-776    	; 0xf8 <_ZN15TuggleAlgorithm7getNextEv>
 400:	68 a3       	std	Y+32, r22	; 0x20
 402:	79 a3       	std	Y+33, r23	; 0x21
 404:	8a a3       	std	Y+34, r24	; 0x22
 406:	de 01       	movw	r26, r28
 408:	13 96       	adiw	r26, 0x03	; 3
 40a:	e1 e9       	ldi	r30, 0x91	; 145
 40c:	f0 e0       	ldi	r31, 0x00	; 0
 40e:	8e e0       	ldi	r24, 0x0E	; 14
 410:	01 90       	ld	r0, Z+
 412:	0d 92       	st	X+, r0
 414:	81 50       	subi	r24, 0x01	; 1
 416:	e1 f7       	brne	.-8      	; 0x410 <main+0x6e>
	const static int MAX_ALG_LEN = 4;
	const static char OK = 0;
	const static char ERR = 1;
	
	TuggleAlgorithm(){
		alglen = 0;
 418:	18 aa       	std	Y+48, r1	; 0x30
		cur = 0;
 41a:	19 aa       	std	Y+49, r1	; 0x31
	public:
	
	Exit (){};
	
	Exit (char num, TuggleAlgorithm talg){
		number = num;
 41c:	83 e0       	ldi	r24, 0x03	; 3
 41e:	8b a3       	std	Y+35, r24	; 0x23
		alg = talg;
 420:	de 01       	movw	r26, r28
 422:	94 96       	adiw	r26, 0x24	; 36
 424:	fe 01       	movw	r30, r28
 426:	33 96       	adiw	r30, 0x03	; 3
 428:	8e e0       	ldi	r24, 0x0E	; 14
 42a:	01 90       	ld	r0, Z+
 42c:	0d 92       	st	X+, r0
 42e:	81 50       	subi	r24, 0x01	; 1
 430:	e1 f7       	brne	.-8      	; 0x42a <main+0x88>
		curtug = alg.getNext();
 432:	ce 01       	movw	r24, r28
 434:	84 96       	adiw	r24, 0x24	; 36
 436:	60 de       	rcall	.-832    	; 0xf8 <_ZN15TuggleAlgorithm7getNextEv>
 438:	6a ab       	std	Y+50, r22	; 0x32
 43a:	7b ab       	std	Y+51, r23	; 0x33
 43c:	8c ab       	std	Y+52, r24	; 0x34
 43e:	de 01       	movw	r26, r28
 440:	13 96       	adiw	r26, 0x03	; 3
 442:	e1 e9       	ldi	r30, 0x91	; 145
 444:	f0 e0       	ldi	r31, 0x00	; 0
 446:	8e e0       	ldi	r24, 0x0E	; 14
 448:	01 90       	ld	r0, Z+
 44a:	0d 92       	st	X+, r0
 44c:	81 50       	subi	r24, 0x01	; 1
 44e:	e1 f7       	brne	.-8      	; 0x448 <main+0xa6>
	const static int MAX_ALG_LEN = 4;
	const static char OK = 0;
	const static char ERR = 1;
	
	TuggleAlgorithm(){
		alglen = 0;
 450:	fe 01       	movw	r30, r28
 452:	ee 5b       	subi	r30, 0xBE	; 190
 454:	ff 4f       	sbci	r31, 0xFF	; 255
 456:	10 82       	st	Z, r1
		cur = 0;
 458:	fe 01       	movw	r30, r28
 45a:	ed 5b       	subi	r30, 0xBD	; 189
 45c:	ff 4f       	sbci	r31, 0xFF	; 255
 45e:	10 82       	st	Z, r1
	public:
	
	Exit (){};
	
	Exit (char num, TuggleAlgorithm talg){
		number = num;
 460:	81 e0       	ldi	r24, 0x01	; 1
 462:	8d ab       	std	Y+53, r24	; 0x35
		alg = talg;
 464:	de 01       	movw	r26, r28
 466:	d6 96       	adiw	r26, 0x36	; 54
 468:	fe 01       	movw	r30, r28
 46a:	33 96       	adiw	r30, 0x03	; 3
 46c:	8e e0       	ldi	r24, 0x0E	; 14
 46e:	01 90       	ld	r0, Z+
 470:	0d 92       	st	X+, r0
 472:	81 50       	subi	r24, 0x01	; 1
 474:	e1 f7       	brne	.-8      	; 0x46e <main+0xcc>
		curtug = alg.getNext();
 476:	8e 01       	movw	r16, r28
 478:	0c 5b       	subi	r16, 0xBC	; 188
 47a:	1f 4f       	sbci	r17, 0xFF	; 255
 47c:	ce 01       	movw	r24, r28
 47e:	c6 96       	adiw	r24, 0x36	; 54
 480:	3b de       	rcall	.-906    	; 0xf8 <_ZN15TuggleAlgorithm7getNextEv>
 482:	d8 01       	movw	r26, r16
 484:	6c 93       	st	X, r22
 486:	11 96       	adiw	r26, 0x01	; 1
 488:	7c 93       	st	X, r23
 48a:	11 97       	sbiw	r26, 0x01	; 1
 48c:	12 96       	adiw	r26, 0x02	; 2
 48e:	8c 93       	st	X, r24
#include "ExitDisp.h"




class AvrExit : public ProcExit{
 490:	89 e8       	ldi	r24, 0x89	; 137
 492:	90 e0       	ldi	r25, 0x00	; 0
 494:	9a 83       	std	Y+2, r25	; 0x02
 496:	89 83       	std	Y+1, r24	; 0x01
int main(){
	Exit main_short_light(MAIN_SHORT_LIGHT, strob[ALWAYS_ON]), // по умолчанию линии открыты, када идет питание лапм,
	     main_long_light (MAIN_LONG_LIGHT,  strob[ALWAYS_ON]), // они сразу же работают, как при обычной эксплуатации
		 main_size_light(MAIN_SIZE_LIGHT,  strob[ALWAYS_ON]);
	AvrExit avext;	 
	ExitDisp disp(&avext);
 498:	ce 01       	movw	r24, r28
 49a:	87 5a       	subi	r24, 0xA7	; 167
 49c:	9f 4f       	sbci	r25, 0xFF	; 255
 49e:	be 01       	movw	r22, r28
 4a0:	6f 5f       	subi	r22, 0xFF	; 255
 4a2:	7f 4f       	sbci	r23, 0xFF	; 255
 4a4:	6b de       	rcall	.-810    	; 0x17c <_ZN8ExitDispC1EP8ProcExit>
 4a6:	de 01       	movw	r26, r28
 4a8:	a9 5b       	subi	r26, 0xB9	; 185
 4aa:	bf 4f       	sbci	r27, 0xFF	; 255
 4ac:	fe 01       	movw	r30, r28
 4ae:	71 96       	adiw	r30, 0x11	; 17
 4b0:	82 e1       	ldi	r24, 0x12	; 18
 4b2:	01 90       	ld	r0, Z+
 4b4:	0d 92       	st	X+, r0
 4b6:	81 50       	subi	r24, 0x01	; 1
 4b8:	e1 f7       	brne	.-8      	; 0x4b2 <main+0x110>
	void setProcExit(ProcExit * pexit){
		proc_exit = pexit;
	}

	char addExit(Exit ext){
		if (len == MAX_EXITS)
 4ba:	fe 01       	movw	r30, r28
 4bc:	e7 56       	subi	r30, 0x67	; 103
 4be:	fd 4f       	sbci	r31, 0xFD	; 253
 4c0:	40 81       	ld	r20, Z
 4c2:	40 32       	cpi	r20, 0x20	; 32
 4c4:	c1 f0       	breq	.+48     	; 0x4f6 <main+0x154>
			return 0;
		
		exits[len++] = ext;
 4c6:	84 2f       	mov	r24, r20
 4c8:	90 e0       	ldi	r25, 0x00	; 0
 4ca:	62 e1       	ldi	r22, 0x12	; 18
 4cc:	70 e0       	ldi	r23, 0x00	; 0
 4ce:	8d d1       	rcall	.+794    	; 0x7ea <__mulhi3>
 4d0:	9e 01       	movw	r18, r28
 4d2:	27 5a       	subi	r18, 0xA7	; 167
 4d4:	3f 4f       	sbci	r19, 0xFF	; 255
 4d6:	d9 01       	movw	r26, r18
 4d8:	a8 0f       	add	r26, r24
 4da:	b9 1f       	adc	r27, r25
 4dc:	fe 01       	movw	r30, r28
 4de:	e9 5b       	subi	r30, 0xB9	; 185
 4e0:	ff 4f       	sbci	r31, 0xFF	; 255
 4e2:	82 e1       	ldi	r24, 0x12	; 18
 4e4:	01 90       	ld	r0, Z+
 4e6:	0d 92       	st	X+, r0
 4e8:	81 50       	subi	r24, 0x01	; 1
 4ea:	e1 f7       	brne	.-8      	; 0x4e4 <main+0x142>
 4ec:	4f 5f       	subi	r20, 0xFF	; 255
 4ee:	fe 01       	movw	r30, r28
 4f0:	e7 56       	subi	r30, 0x67	; 103
 4f2:	fd 4f       	sbci	r31, 0xFD	; 253
 4f4:	40 83       	st	Z, r20
 4f6:	de 01       	movw	r26, r28
 4f8:	a9 5b       	subi	r26, 0xB9	; 185
 4fa:	bf 4f       	sbci	r27, 0xFF	; 255
 4fc:	fe 01       	movw	r30, r28
 4fe:	b3 96       	adiw	r30, 0x23	; 35
 500:	82 e1       	ldi	r24, 0x12	; 18
 502:	01 90       	ld	r0, Z+
 504:	0d 92       	st	X+, r0
 506:	81 50       	subi	r24, 0x01	; 1
 508:	e1 f7       	brne	.-8      	; 0x502 <main+0x160>
	void setProcExit(ProcExit * pexit){
		proc_exit = pexit;
	}

	char addExit(Exit ext){
		if (len == MAX_EXITS)
 50a:	fe 01       	movw	r30, r28
 50c:	e7 56       	subi	r30, 0x67	; 103
 50e:	fd 4f       	sbci	r31, 0xFD	; 253
 510:	40 81       	ld	r20, Z
 512:	40 32       	cpi	r20, 0x20	; 32
 514:	c1 f0       	breq	.+48     	; 0x546 <main+0x1a4>
			return 0;
		
		exits[len++] = ext;
 516:	84 2f       	mov	r24, r20
 518:	90 e0       	ldi	r25, 0x00	; 0
 51a:	62 e1       	ldi	r22, 0x12	; 18
 51c:	70 e0       	ldi	r23, 0x00	; 0
 51e:	65 d1       	rcall	.+714    	; 0x7ea <__mulhi3>
 520:	9e 01       	movw	r18, r28
 522:	27 5a       	subi	r18, 0xA7	; 167
 524:	3f 4f       	sbci	r19, 0xFF	; 255
 526:	d9 01       	movw	r26, r18
 528:	a8 0f       	add	r26, r24
 52a:	b9 1f       	adc	r27, r25
 52c:	fe 01       	movw	r30, r28
 52e:	e9 5b       	subi	r30, 0xB9	; 185
 530:	ff 4f       	sbci	r31, 0xFF	; 255
 532:	82 e1       	ldi	r24, 0x12	; 18
 534:	01 90       	ld	r0, Z+
 536:	0d 92       	st	X+, r0
 538:	81 50       	subi	r24, 0x01	; 1
 53a:	e1 f7       	brne	.-8      	; 0x534 <main+0x192>
 53c:	4f 5f       	subi	r20, 0xFF	; 255
 53e:	fe 01       	movw	r30, r28
 540:	e7 56       	subi	r30, 0x67	; 103
 542:	fd 4f       	sbci	r31, 0xFD	; 253
 544:	40 83       	st	Z, r20
 546:	de 01       	movw	r26, r28
 548:	a9 5b       	subi	r26, 0xB9	; 185
 54a:	bf 4f       	sbci	r27, 0xFF	; 255
 54c:	fe 01       	movw	r30, r28
 54e:	f5 96       	adiw	r30, 0x35	; 53
 550:	82 e1       	ldi	r24, 0x12	; 18
 552:	01 90       	ld	r0, Z+
 554:	0d 92       	st	X+, r0
 556:	81 50       	subi	r24, 0x01	; 1
 558:	e1 f7       	brne	.-8      	; 0x552 <main+0x1b0>
	void setProcExit(ProcExit * pexit){
		proc_exit = pexit;
	}

	char addExit(Exit ext){
		if (len == MAX_EXITS)
 55a:	fe 01       	movw	r30, r28
 55c:	e7 56       	subi	r30, 0x67	; 103
 55e:	fd 4f       	sbci	r31, 0xFD	; 253
 560:	40 81       	ld	r20, Z
 562:	40 32       	cpi	r20, 0x20	; 32
 564:	c1 f0       	breq	.+48     	; 0x596 <main+0x1f4>
			return 0;
		
		exits[len++] = ext;
 566:	84 2f       	mov	r24, r20
 568:	90 e0       	ldi	r25, 0x00	; 0
 56a:	62 e1       	ldi	r22, 0x12	; 18
 56c:	70 e0       	ldi	r23, 0x00	; 0
 56e:	3d d1       	rcall	.+634    	; 0x7ea <__mulhi3>
 570:	9e 01       	movw	r18, r28
 572:	27 5a       	subi	r18, 0xA7	; 167
 574:	3f 4f       	sbci	r19, 0xFF	; 255
 576:	d9 01       	movw	r26, r18
 578:	a8 0f       	add	r26, r24
 57a:	b9 1f       	adc	r27, r25
 57c:	fe 01       	movw	r30, r28
 57e:	e9 5b       	subi	r30, 0xB9	; 185
 580:	ff 4f       	sbci	r31, 0xFF	; 255
 582:	82 e1       	ldi	r24, 0x12	; 18
 584:	01 90       	ld	r0, Z+
 586:	0d 92       	st	X+, r0
 588:	81 50       	subi	r24, 0x01	; 1
 58a:	e1 f7       	brne	.-8      	; 0x584 <main+0x1e2>
 58c:	4f 5f       	subi	r20, 0xFF	; 255
 58e:	fe 01       	movw	r30, r28
 590:	e7 56       	subi	r30, 0x67	; 103
 592:	fd 4f       	sbci	r31, 0xFD	; 253
 594:	40 83       	st	Z, r20

	disp.addExit(main_short_light);
	disp.addExit(main_long_light);
	disp.addExit(main_size_light);	
	
	disp.firstCheckExits();
 596:	8e 01       	movw	r16, r28
 598:	07 5a       	subi	r16, 0xA7	; 167
 59a:	1f 4f       	sbci	r17, 0xFF	; 255
 59c:	c8 01       	movw	r24, r16
 59e:	03 de       	rcall	.-1018   	; 0x1a6 <_ZN8ExitDisp15firstCheckExitsEv>
			switch(res){
				case NEXTSTROB:{
					if (strob_pos++ > STROB_STOP)
						strob_pos = STROB_START;
						
					main_short_light.reInit(MAIN_SHORT_LIGHT, strob[strob_pos]);
 5a0:	b3 e0       	ldi	r27, 0x03	; 3
 5a2:	eb 2e       	mov	r14, r27
 5a4:	f1 2c       	mov	r15, r1
 5a6:	ec 0e       	add	r14, r28
 5a8:	fd 1e       	adc	r15, r29
		alg = talg;
		curtug = alg.getNext();
	}
	
	void reInit(char cnum, TuggleAlgorithm calg){
		number = cnum;
 5aa:	a2 e0       	ldi	r26, 0x02	; 2
 5ac:	3a 2e       	mov	r3, r26
		alg = calg;
 5ae:	f2 e1       	ldi	r31, 0x12	; 18
 5b0:	8f 2e       	mov	r8, r31
 5b2:	91 2c       	mov	r9, r1
 5b4:	8c 0e       	add	r8, r28
 5b6:	9d 1e       	adc	r9, r29
		alg = talg;
		curtug = alg.getNext();
	}
	
	void reInit(char cnum, TuggleAlgorithm calg){
		number = cnum;
 5b8:	e3 e0       	ldi	r30, 0x03	; 3
 5ba:	2e 2e       	mov	r2, r30
		alg = calg;
 5bc:	74 e2       	ldi	r23, 0x24	; 36
 5be:	67 2e       	mov	r6, r23
 5c0:	71 2c       	mov	r7, r1
 5c2:	6c 0e       	add	r6, r28
 5c4:	7d 1e       	adc	r7, r29
 5c6:	66 e3       	ldi	r22, 0x36	; 54
 5c8:	46 2e       	mov	r4, r22
 5ca:	51 2c       	mov	r5, r1
 5cc:	4c 0e       	add	r4, r28
 5ce:	5d 1e       	adc	r5, r29
		curtug = alg.getNext();
 5d0:	54 e4       	ldi	r21, 0x44	; 68
 5d2:	a5 2e       	mov	r10, r21
 5d4:	b1 2c       	mov	r11, r1
 5d6:	ac 0e       	add	r10, r28
 5d8:	bd 1e       	adc	r11, r29
 5da:	47 e4       	ldi	r20, 0x47	; 71
 5dc:	c4 2e       	mov	r12, r20
 5de:	d1 2c       	mov	r13, r1
 5e0:	cc 0e       	add	r12, r28
 5e2:	dd 1e       	adc	r13, r29
	disp.addExit(main_size_light);	
	
	disp.firstCheckExits();
	
	while(1){
		if (checkflag){
 5e4:	80 91 8c 00 	lds	r24, 0x008C
 5e8:	88 23       	and	r24, r24
 5ea:	e1 f3       	breq	.-8      	; 0x5e4 <main+0x242>
			checkflag = NO_CHECK;
 5ec:	10 92 8c 00 	sts	0x008C, r1
			
			CommandResult res = checkUserCommand();
 5f0:	72 de       	rcall	.-796    	; 0x2d6 <_Z16checkUserCommandv>
			switch(res){
 5f2:	81 30       	cpi	r24, 0x01	; 1
 5f4:	09 f0       	breq	.+2      	; 0x5f8 <main+0x256>
 5f6:	d2 c0       	rjmp	.+420    	; 0x79c <main+0x3fa>
				case NEXTSTROB:{
					if (strob_pos++ > STROB_STOP)
 5f8:	80 91 84 00 	lds	r24, 0x0084
 5fc:	98 2f       	mov	r25, r24
 5fe:	9f 5f       	subi	r25, 0xFF	; 255
 600:	90 93 84 00 	sts	0x0084, r25
 604:	85 30       	cpi	r24, 0x05	; 5
 606:	10 f0       	brcs	.+4      	; 0x60c <main+0x26a>
						strob_pos = STROB_START;
 608:	30 92 84 00 	sts	0x0084, r3
						
					main_short_light.reInit(MAIN_SHORT_LIGHT, strob[strob_pos]);
 60c:	80 91 84 00 	lds	r24, 0x0084
 610:	90 e0       	ldi	r25, 0x00	; 0
 612:	6e e0       	ldi	r22, 0x0E	; 14
 614:	70 e0       	ldi	r23, 0x00	; 0
 616:	e9 d0       	rcall	.+466    	; 0x7ea <__mulhi3>
 618:	d7 01       	movw	r26, r14
 61a:	fc 01       	movw	r30, r24
 61c:	ef 56       	subi	r30, 0x6F	; 111
 61e:	ff 4f       	sbci	r31, 0xFF	; 255
 620:	8e e0       	ldi	r24, 0x0E	; 14
 622:	01 90       	ld	r0, Z+
 624:	0d 92       	st	X+, r0
 626:	81 50       	subi	r24, 0x01	; 1
 628:	e1 f7       	brne	.-8      	; 0x622 <main+0x280>
		alg = talg;
		curtug = alg.getNext();
	}
	
	void reInit(char cnum, TuggleAlgorithm calg){
		number = cnum;
 62a:	39 8a       	std	Y+17, r3	; 0x11
		alg = calg;
 62c:	f4 01       	movw	r30, r8
 62e:	d7 01       	movw	r26, r14
 630:	8e e0       	ldi	r24, 0x0E	; 14
 632:	0d 90       	ld	r0, X+
 634:	01 92       	st	Z+, r0
 636:	81 50       	subi	r24, 0x01	; 1
 638:	e1 f7       	brne	.-8      	; 0x632 <main+0x290>
		curtug = alg.getNext();
 63a:	c4 01       	movw	r24, r8
 63c:	5d dd       	rcall	.-1350   	; 0xf8 <_ZN15TuggleAlgorithm7getNextEv>
 63e:	68 a3       	std	Y+32, r22	; 0x20
 640:	79 a3       	std	Y+33, r23	; 0x21
 642:	8a a3       	std	Y+34, r24	; 0x22
					main_long_light.reInit(MAIN_LONG_LIGHT, strob[strob_pos]);
 644:	80 91 84 00 	lds	r24, 0x0084
 648:	90 e0       	ldi	r25, 0x00	; 0
 64a:	6e e0       	ldi	r22, 0x0E	; 14
 64c:	70 e0       	ldi	r23, 0x00	; 0
 64e:	cd d0       	rcall	.+410    	; 0x7ea <__mulhi3>
 650:	d7 01       	movw	r26, r14
 652:	fc 01       	movw	r30, r24
 654:	ef 56       	subi	r30, 0x6F	; 111
 656:	ff 4f       	sbci	r31, 0xFF	; 255
 658:	8e e0       	ldi	r24, 0x0E	; 14
 65a:	01 90       	ld	r0, Z+
 65c:	0d 92       	st	X+, r0
 65e:	81 50       	subi	r24, 0x01	; 1
 660:	e1 f7       	brne	.-8      	; 0x65a <main+0x2b8>
		alg = talg;
		curtug = alg.getNext();
	}
	
	void reInit(char cnum, TuggleAlgorithm calg){
		number = cnum;
 662:	2b a2       	std	Y+35, r2	; 0x23
		alg = calg;
 664:	f3 01       	movw	r30, r6
 666:	d7 01       	movw	r26, r14
 668:	8e e0       	ldi	r24, 0x0E	; 14
 66a:	0d 90       	ld	r0, X+
 66c:	01 92       	st	Z+, r0
 66e:	81 50       	subi	r24, 0x01	; 1
 670:	e1 f7       	brne	.-8      	; 0x66a <main+0x2c8>
		curtug = alg.getNext();
 672:	c3 01       	movw	r24, r6
 674:	41 dd       	rcall	.-1406   	; 0xf8 <_ZN15TuggleAlgorithm7getNextEv>
 676:	6a ab       	std	Y+50, r22	; 0x32
 678:	7b ab       	std	Y+51, r23	; 0x33
 67a:	8c ab       	std	Y+52, r24	; 0x34
 67c:	f7 01       	movw	r30, r14
 67e:	af e9       	ldi	r26, 0x9F	; 159
 680:	b0 e0       	ldi	r27, 0x00	; 0
 682:	8e e0       	ldi	r24, 0x0E	; 14
 684:	0d 90       	ld	r0, X+
 686:	01 92       	st	Z+, r0
 688:	81 50       	subi	r24, 0x01	; 1
 68a:	e1 f7       	brne	.-8      	; 0x684 <main+0x2e2>
		alg = talg;
		curtug = alg.getNext();
	}
	
	void reInit(char cnum, TuggleAlgorithm calg){
		number = cnum;
 68c:	b1 e0       	ldi	r27, 0x01	; 1
 68e:	bd ab       	std	Y+53, r27	; 0x35
		alg = calg;
 690:	f2 01       	movw	r30, r4
 692:	d7 01       	movw	r26, r14
 694:	8e e0       	ldi	r24, 0x0E	; 14
 696:	0d 90       	ld	r0, X+
 698:	01 92       	st	Z+, r0
 69a:	81 50       	subi	r24, 0x01	; 1
 69c:	e1 f7       	brne	.-8      	; 0x696 <main+0x2f4>
		curtug = alg.getNext();
 69e:	c2 01       	movw	r24, r4
 6a0:	2b dd       	rcall	.-1450   	; 0xf8 <_ZN15TuggleAlgorithm7getNextEv>
 6a2:	f5 01       	movw	r30, r10
 6a4:	60 83       	st	Z, r22
 6a6:	71 83       	std	Z+1, r23	; 0x01
 6a8:	82 83       	std	Z+2, r24	; 0x02
 6aa:	f6 01       	movw	r30, r12
 6ac:	de 01       	movw	r26, r28
 6ae:	51 96       	adiw	r26, 0x11	; 17
 6b0:	82 e1       	ldi	r24, 0x12	; 18
 6b2:	0d 90       	ld	r0, X+
 6b4:	01 92       	st	Z+, r0
 6b6:	81 50       	subi	r24, 0x01	; 1
 6b8:	e1 f7       	brne	.-8      	; 0x6b2 <main+0x310>
		return len;	
	}

	char changeExitByNumber(Exit ext, char number){
		char changes = 0;
		for(unsigned char i = 0; i < this->len; i++){
 6ba:	20 e0       	ldi	r18, 0x00	; 0
 6bc:	1a c0       	rjmp	.+52     	; 0x6f2 <main+0x350>
				}
			}
			disp.checkExits();	
		}
	}
}
 6be:	82 2f       	mov	r24, r18
 6c0:	90 e0       	ldi	r25, 0x00	; 0
 6c2:	62 e1       	ldi	r22, 0x12	; 18
 6c4:	70 e0       	ldi	r23, 0x00	; 0
 6c6:	91 d0       	rcall	.+290    	; 0x7ea <__mulhi3>
 6c8:	f8 01       	movw	r30, r16
 6ca:	e8 0f       	add	r30, r24
 6cc:	f9 1f       	adc	r31, r25
			if (exits[i].getNumber() == number){
 6ce:	80 81       	ld	r24, Z
 6d0:	82 30       	cpi	r24, 0x02	; 2
 6d2:	71 f4       	brne	.+28     	; 0x6f0 <main+0x34e>
				exits[i] = ext;
 6d4:	82 2f       	mov	r24, r18
 6d6:	90 e0       	ldi	r25, 0x00	; 0
 6d8:	62 e1       	ldi	r22, 0x12	; 18
 6da:	70 e0       	ldi	r23, 0x00	; 0
 6dc:	86 d0       	rcall	.+268    	; 0x7ea <__mulhi3>
 6de:	f8 01       	movw	r30, r16
 6e0:	e8 0f       	add	r30, r24
 6e2:	f9 1f       	adc	r31, r25
 6e4:	d6 01       	movw	r26, r12
 6e6:	82 e1       	ldi	r24, 0x12	; 18
 6e8:	0d 90       	ld	r0, X+
 6ea:	01 92       	st	Z+, r0
 6ec:	81 50       	subi	r24, 0x01	; 1
 6ee:	e1 f7       	brne	.-8      	; 0x6e8 <main+0x346>
		return len;	
	}

	char changeExitByNumber(Exit ext, char number){
		char changes = 0;
		for(unsigned char i = 0; i < this->len; i++){
 6f0:	2f 5f       	subi	r18, 0xFF	; 255
 6f2:	c7 56       	subi	r28, 0x67	; 103
 6f4:	dd 4f       	sbci	r29, 0xFD	; 253
 6f6:	88 81       	ld	r24, Y
 6f8:	c9 59       	subi	r28, 0x99	; 153
 6fa:	d2 40       	sbci	r29, 0x02	; 2
 6fc:	28 17       	cp	r18, r24
 6fe:	f8 f2       	brcs	.-66     	; 0x6be <main+0x31c>
 700:	f6 01       	movw	r30, r12
 702:	de 01       	movw	r26, r28
 704:	93 96       	adiw	r26, 0x23	; 35
 706:	92 e1       	ldi	r25, 0x12	; 18
 708:	0d 90       	ld	r0, X+
 70a:	01 92       	st	Z+, r0
 70c:	91 50       	subi	r25, 0x01	; 1
 70e:	e1 f7       	brne	.-8      	; 0x708 <main+0x366>
 710:	d8 01       	movw	r26, r16
	TCNT1 = 65536 - 100; //  31220;
    TCCR1B = (1<<CS12);
    TIMSK |= (1<<TOIE1);
}
							
int main(){
 712:	62 e1       	ldi	r22, 0x12	; 18
 714:	70 e0       	ldi	r23, 0x00	; 0
 716:	69 d0       	rcall	.+210    	; 0x7ea <__mulhi3>
 718:	a8 01       	movw	r20, r16
 71a:	48 0f       	add	r20, r24
 71c:	59 1f       	adc	r21, r25
 71e:	f8 01       	movw	r30, r16
 720:	1b c0       	rjmp	.+54     	; 0x758 <main+0x3b6>
			if (exits[i].getNumber() == number){
 722:	80 81       	ld	r24, Z
 724:	83 30       	cpi	r24, 0x03	; 3
 726:	b9 f4       	brne	.+46     	; 0x756 <main+0x3b4>
				exits[i] = ext;
 728:	cf 01       	movw	r24, r30
 72a:	96 01       	movw	r18, r12
 72c:	62 e1       	ldi	r22, 0x12	; 18
 72e:	c4 56       	subi	r28, 0x64	; 100
 730:	dd 4f       	sbci	r29, 0xFD	; 253
 732:	f9 83       	std	Y+1, r31	; 0x01
 734:	e8 83       	st	Y, r30
 736:	cc 59       	subi	r28, 0x9C	; 156
 738:	d2 40       	sbci	r29, 0x02	; 2
 73a:	f9 01       	movw	r30, r18
 73c:	01 90       	ld	r0, Z+
 73e:	9f 01       	movw	r18, r30
 740:	fc 01       	movw	r30, r24
 742:	01 92       	st	Z+, r0
 744:	cf 01       	movw	r24, r30
 746:	61 50       	subi	r22, 0x01	; 1
 748:	c1 f7       	brne	.-16     	; 0x73a <main+0x398>
 74a:	c4 56       	subi	r28, 0x64	; 100
 74c:	dd 4f       	sbci	r29, 0xFD	; 253
 74e:	e8 81       	ld	r30, Y
 750:	f9 81       	ldd	r31, Y+1	; 0x01
 752:	cc 59       	subi	r28, 0x9C	; 156
 754:	d2 40       	sbci	r29, 0x02	; 2
 756:	72 96       	adiw	r30, 0x12	; 18
		return len;	
	}

	char changeExitByNumber(Exit ext, char number){
		char changes = 0;
		for(unsigned char i = 0; i < this->len; i++){
 758:	e4 17       	cp	r30, r20
 75a:	f5 07       	cpc	r31, r21
 75c:	11 f7       	brne	.-60     	; 0x722 <main+0x380>
 75e:	f6 01       	movw	r30, r12
 760:	ce 01       	movw	r24, r28
 762:	c5 96       	adiw	r24, 0x35	; 53
 764:	22 e1       	ldi	r18, 0x12	; 18
 766:	bd 01       	movw	r22, r26
 768:	dc 01       	movw	r26, r24
 76a:	0d 90       	ld	r0, X+
 76c:	cd 01       	movw	r24, r26
 76e:	01 92       	st	Z+, r0
 770:	21 50       	subi	r18, 0x01	; 1
 772:	d1 f7       	brne	.-12     	; 0x768 <main+0x3c6>
 774:	db 01       	movw	r26, r22
 776:	0f c0       	rjmp	.+30     	; 0x796 <main+0x3f4>
			if (exits[i].getNumber() == number){
 778:	8c 91       	ld	r24, X
 77a:	81 30       	cpi	r24, 0x01	; 1
 77c:	59 f4       	brne	.+22     	; 0x794 <main+0x3f2>
				exits[i] = ext;
 77e:	fd 01       	movw	r30, r26
 780:	c6 01       	movw	r24, r12
 782:	22 e1       	ldi	r18, 0x12	; 18
 784:	bd 01       	movw	r22, r26
 786:	dc 01       	movw	r26, r24
 788:	0d 90       	ld	r0, X+
 78a:	cd 01       	movw	r24, r26
 78c:	01 92       	st	Z+, r0
 78e:	21 50       	subi	r18, 0x01	; 1
 790:	d1 f7       	brne	.-12     	; 0x786 <main+0x3e4>
 792:	db 01       	movw	r26, r22
 794:	52 96       	adiw	r26, 0x12	; 18
		return len;	
	}

	char changeExitByNumber(Exit ext, char number){
		char changes = 0;
		for(unsigned char i = 0; i < this->len; i++){
 796:	a4 17       	cp	r26, r20
 798:	b5 07       	cpc	r27, r21
 79a:	71 f7       	brne	.-36     	; 0x778 <main+0x3d6>
				case NO:
				default:{
					break;
				}
			}
			disp.checkExits();	
 79c:	c8 01       	movw	r24, r16
 79e:	4a dd       	rcall	.-1388   	; 0x234 <_ZN8ExitDisp10checkExitsEv>
 7a0:	21 cf       	rjmp	.-446    	; 0x5e4 <main+0x242>

000007a2 <_GLOBAL__I_alwayson>:
		}
	}
}
 7a2:	cf 93       	push	r28
 7a4:	df 93       	push	r29

volatile static TuggleAlgorithm strob[] = { {alwayson, 1},
											{alwaysoff, 1},
											{blink_70_70, 2},
											{blink_20_50_50_20,4},
											{blink_20_20_20_60,4} };
 7a6:	c1 e9       	ldi	r28, 0x91	; 145
 7a8:	d0 e0       	ldi	r29, 0x00	; 0
 7aa:	ce 01       	movw	r24, r28
 7ac:	60 e6       	ldi	r22, 0x60	; 96
 7ae:	70 e0       	ldi	r23, 0x00	; 0
 7b0:	41 e0       	ldi	r20, 0x01	; 1
 7b2:	a0 dc       	rcall	.-1728   	; 0xf4 <_ZN15TuggleAlgorithmC1EP7Tuglingc>
 7b4:	ce 01       	movw	r24, r28
 7b6:	0e 96       	adiw	r24, 0x0e	; 14
 7b8:	63 e6       	ldi	r22, 0x63	; 99
 7ba:	70 e0       	ldi	r23, 0x00	; 0
 7bc:	41 e0       	ldi	r20, 0x01	; 1
 7be:	9a dc       	rcall	.-1740   	; 0xf4 <_ZN15TuggleAlgorithmC1EP7Tuglingc>
 7c0:	ce 01       	movw	r24, r28
 7c2:	4c 96       	adiw	r24, 0x1c	; 28
 7c4:	66 e6       	ldi	r22, 0x66	; 102
 7c6:	70 e0       	ldi	r23, 0x00	; 0
 7c8:	42 e0       	ldi	r20, 0x02	; 2
 7ca:	94 dc       	rcall	.-1752   	; 0xf4 <_ZN15TuggleAlgorithmC1EP7Tuglingc>
 7cc:	ce 01       	movw	r24, r28
 7ce:	8a 96       	adiw	r24, 0x2a	; 42
 7d0:	6c e6       	ldi	r22, 0x6C	; 108
 7d2:	70 e0       	ldi	r23, 0x00	; 0
 7d4:	44 e0       	ldi	r20, 0x04	; 4
 7d6:	8e dc       	rcall	.-1764   	; 0xf4 <_ZN15TuggleAlgorithmC1EP7Tuglingc>
 7d8:	ce 01       	movw	r24, r28
 7da:	c8 96       	adiw	r24, 0x38	; 56
 7dc:	68 e7       	ldi	r22, 0x78	; 120
 7de:	70 e0       	ldi	r23, 0x00	; 0
 7e0:	44 e0       	ldi	r20, 0x04	; 4
 7e2:	88 dc       	rcall	.-1776   	; 0xf4 <_ZN15TuggleAlgorithmC1EP7Tuglingc>
				}
			}
			disp.checkExits();	
		}
	}
}
 7e4:	df 91       	pop	r29
 7e6:	cf 91       	pop	r28
 7e8:	08 95       	ret

000007ea <__mulhi3>:
 7ea:	55 27       	eor	r21, r21
 7ec:	00 24       	eor	r0, r0

000007ee <__mulhi3_loop>:
 7ee:	80 ff       	sbrs	r24, 0
 7f0:	02 c0       	rjmp	.+4      	; 0x7f6 <__mulhi3_skip1>
 7f2:	06 0e       	add	r0, r22
 7f4:	57 1f       	adc	r21, r23

000007f6 <__mulhi3_skip1>:
 7f6:	66 0f       	add	r22, r22
 7f8:	77 1f       	adc	r23, r23
 7fa:	61 15       	cp	r22, r1
 7fc:	71 05       	cpc	r23, r1
 7fe:	21 f0       	breq	.+8      	; 0x808 <__mulhi3_exit>
 800:	96 95       	lsr	r25
 802:	87 95       	ror	r24
 804:	00 97       	sbiw	r24, 0x00	; 0
 806:	99 f7       	brne	.-26     	; 0x7ee <__mulhi3_loop>

00000808 <__mulhi3_exit>:
 808:	95 2f       	mov	r25, r21
 80a:	80 2d       	mov	r24, r0
 80c:	08 95       	ret

0000080e <__tablejump2__>:
 80e:	ee 0f       	add	r30, r30
 810:	ff 1f       	adc	r31, r31

00000812 <__tablejump__>:
 812:	05 90       	lpm	r0, Z+
 814:	f4 91       	lpm	r31, Z+
 816:	e0 2d       	mov	r30, r0
 818:	09 94       	ijmp

0000081a <_exit>:
 81a:	f8 94       	cli

0000081c <__stop_program>:
 81c:	ff cf       	rjmp	.-2      	; 0x81c <__stop_program>
